# <big> Swift Runtime Symbols </big>
## Table of Contents



# Runtime functions
## C functions
```
0052e43c T swift_addNewDSOImage
00431810 t __swift_allocate_boxed_opaque_existential_0
004c7314 T swift_allocateGenericClassMetadata
004c7740 T swift_allocateGenericValueMetadata
004b67b0 T swift_allocBox
004b6a78 T swift_allocEmptyBox
004b5594 T swift_allocError
005a0a98 D _swift_allocObject
004b657c T swift_allocObject
001f4a44 t _swift_anyHashableDownCastConditionalIndirect
004ad034 T swift_arrayAssignWithCopyBackToFront
004acfb8 T swift_arrayAssignWithCopyFrontToBack
004acf3c T swift_arrayAssignWithCopyNoAlias
004ad0b4 T swift_arrayAssignWithTake
004ad130 T swift_arrayDestroy
00103614 t _swift_arrayDownCastConditionalIndirect
001028c8 t _swift_arrayDownCastIndirect
004acd48 T swift_arrayInitWithCopy
004acebc T swift_arrayInitWithTakeBackToFront
004ace40 T swift_arrayInitWithTakeFrontToBack
004acdc4 T swift_arrayInitWithTakeNoAlias
004883cc t __swift_assign_boxed_opaque_existential_0
0048d958 t __swift_assign_boxed_opaque_existential_1
004cc02c T swift_assignExistentialWithCopy
00486818 t __swift_assignWithCopy_strong
0048684c t __swift_assignWithTake_strong
004b5da8 T swift_beginAccess
005169f8 T swift_bridgeObjectRelease
00516a24 T swift_bridgeObjectRelease_n
005169c0 T swift_bridgeObjectRetain
00516a08 T swift_bridgeObjectRetain_n
004addbc t _swift_bridgeToObjectiveCUsingProtocolIfPossible
004b6710 T swift_bufferAllocate
004cee4c T swift_checkMetadataState
004adc10 t _swift_class_getSuperclass
004e9210 T swift_conformsToProtocol
001f49c0 t _swift_convertToAnyHashableIndirect
004ba4e0 T swift_copyKeyPathTrivialIndices
004ba60c T swift_copyPOD
004b6968 T swift_deallocBox
004b82cc T swift_deallocClassInstance
004b562c T swift_deallocError
004b6a58 T swift_deallocObject
004b82d4 T swift_deallocPartialClassInstance
004b8744 T swift_deallocUninitializedObject
004cc720 T _swift_debug_verifyTypeLayoutAttribute
004d9aa8 t _swift_debug_verifyTypeLayoutAttribute.cold.1
004eded4 t swift_decompose_double
004eee54 t swift_decompose_float
004b5be8 T swift_deletedMethodError
004b439c T swift_demangle
00435a40 t __swift_destroy_boxed_opaque_existential_0
00486810 t __swift_destroy_strong
001a75f0 t _swift_dictionaryDownCastConditionalIndirect
001a663c t _swift_dictionaryDownCastIndirect
004de17c T swift_disableDynamicReplacementScope
005b6460 B _swift_disableExclusivityChecking
004ed4b4 T _swift_dumpObjectsRuntimeFunctionPointers
004b61dc T swift_dumpTrackedAccesses
004ade94 T swift_dynamicCast
004af340 T swift_dynamicCastClass
004af3f4 T swift_dynamicCastClassUnconditional
00516df4 T swift_dynamicCastForeignClassMetatype
00516e60 T swift_dynamicCastForeignClassMetatypeUnconditional
004af8ac T swift_dynamicCastMetatype
004afa38 T swift_dynamicCastMetatypeUnconditional
004af5b0 T swift_dynamicCastUnknownClass
004af780 T swift_dynamicCastUnknownClassUnconditional
005a0b88 D _swiftEmptyArrayStorage
005a0b98 D _swiftEmptyDictionarySingleton
005a0bc0 D _swiftEmptySetSingleton
004de008 T swift_enableDynamicReplacementScope
004b608c T swift_endAccess
005179b0 T swift_EnumCaseName
001b661c T swift_errorInMain
004add18 T _swift_extractDynamicValue
0052d74c T swift_float32ToString
0052d760 T swift_float64ToString
0052d774 T swift_float80ToString
004ef5f4 t swift_format_decimal
004ef7d8 t swift_format_double
004ef434 t swift_format_exponential
004ef210 t swift_format_float
004cdd80 T swift_getAssociatedConformanceWitness
004cde34 t swift_getAssociatedConformanceWitnessSlow
004cdc28 T swift_getAssociatedTypeWitness
004cdce4 t swift_getAssociatedTypeWitnessSlow
0025fcd8 T swift_getAtAnyKeyPath
0025fcc4 T swift_getAtKeyPath
0025fb88 T swift_getAtPartialKeyPath
004ad834 T swift_getDynamicType
004b5258 T swift_getEnumCaseMultiPayload
004b46d8 T swift_getEnumTagSinglePayloadGeneric
004b564c T swift_getErrorValue
004cac78 T swift_getExistentialMetatypeMetadata
004cb4e8 T swift_getExistentialTypeMetadata
0049ac00 t __swift_get_extra_inhabitant_index.664Tm
0049aca4 t __swift_get_extra_inhabitant_index.665Tm
004cc07c T swift_getForeignTypeMetadata
004b6150 T swift_getFunctionReplacement
004c83c4 T swift_getFunctionTypeMetadata
004c836c T swift_getFunctionTypeMetadata0
004c87f8 T swift_getFunctionTypeMetadata1
004c8858 T swift_getFunctionTypeMetadata2
004c88b8 T swift_getFunctionTypeMetadata3
004c7994 T swift_getGenericMetadata
004ed408 T _swift_getGlobalRuntimeFunctionCounters
004d02dc T swift_getKeyPath
00261400 T swift_getKeyPathImpl
004caa0c T swift_getMetatypeMetadata
004ed4a8 T _swift_getNumRuntimeFunctionCounters
004ed23c T _swift_getObjectRuntimeFunctionCounters
00516958 T swift_getObjectType
004dc900 T swift_getOpaqueTypeConformance
004dc720 T swift_getOpaqueTypeMetadata
004b61ac T swift_getOrigOfReplaceable
004ed498 T _swift_getRuntimeFunctionCountersOffsets
004ed488 T _swift_getRuntimeFunctionNames
004c8044 T swift_getSingletonMetadata
00516d4c T _swift_getSwiftClassInstanceExtents
004c8988 T swift_getTupleTypeLayout
004c8920 T swift_getTupleTypeLayout2
004c8ae4 T swift_getTupleTypeLayout3
004c8b48 T swift_getTupleTypeMetadata
004c94bc T swift_getTupleTypeMetadata2
004c94ec T swift_getTupleTypeMetadata3
004dc560 T swift_getTypeByMangledNameInContext
004dc24c T swift_getTypeByMangledNameInEnvironment
004d0288 T swift_getTypeContextDescriptor
004ad404 T swift_getTypeName
004cce20 T swift_getWitnessTable
004c9bd4 T swift_initClassMetadata
004ca65c T swift_initClassMetadata2
004b4a80 T swift_initEnumMetadataMultiPayload
004b450c T swift_initEnumMetadataSingleCase
004b456c T swift_initEnumMetadataSinglePayload
004b65fc T swift_initStackObject
004b6624 T swift_initStaticObject
004c993c T swift_initStructMetadata
004867f4 t __swift_initWithCopy_strong
0052d19c T _swift_instantiateInertHeapObject
0052d46c T swift_int64ToString
004e7ac8 T swift_intToFloat32
004e7bd0 T swift_intToFloat64
004adbd0 T _swift_isClassOrObjCExistentialType
004adca0 T swift_isClassType
004b79fc T swift_isDeallocating
00516bc4 T swift_isEscapingClosureAtFileLocation
004adcfc t _swift_isOptional
004adce0 T swift_isOptionalType
00516b58 T swift_isUniquelyReferenced_native
00516a50 T swift_isUniquelyReferenced_nonNull_native
00516bac T swift_isUniquelyReferencedNonObjC
00516b68 T swift_isUniquelyReferencedNonObjC_nonNull
00516bbc T swift_isUniquelyReferencedNonObjC_nonNull_bridgeObject
005a0ac4 D swift_keyPathGenericWitnessTable
00586954 R _swift_lldb_offsetof_SwiftError_typeMetadata
00586958 R _swift_lldb_sizeof_SwiftError
004ca680 T swift_lookUpClassMethod
004acb74 T _swift_makeAnyHashableUpcastingToHashableBaseType
001f4898 t _swift_makeAnyHashableUsingDefaultRepresentation
004b6720 T swift_makeBoxUnique
0048a4b4 t __swift_memcpy0_1
00486b74 t __swift_memcpy1_1
00486f10 t __swift_memcpy12_4
0049b35c t __swift_memcpy128_16
004868fc t __swift_memcpy16_4
00494b4c t __swift_memcpy16_8
00496b00 t __swift_memcpy17_4
0048867c t __swift_memcpy20_4
0049a050 t __swift_memcpy21_4
00497168 t __swift_memcpy23_4
0049b484 t __swift_memcpy256_16
00492e6c t __swift_memcpy256_4
004972e0 t __swift_memcpy28_8
0049d20c t __swift_memcpy32_1
0049b0c0 t __swift_memcpy32_16
004987d8 t __swift_memcpy33_8
004884fc t __swift_memcpy36_4
00488b0c t __swift_memcpy41_4
00486840 t __swift_memcpy4_4
0049b5ac t __swift_memcpy512_16
00496828 t __swift_memcpy5_4
0049b0f4 t __swift_memcpy64_16
00492ea4 t __swift_memcpy64_8
0048dba0 t __swift_memcpy72_8
004866d4 t __swift_memcpy8_4
00494bf8 t __swift_memcpy9_4
004ba5d8 T swift_modifyAtReferenceWritableKeyPath
00260024 T _swift_modifyAtReferenceWritableKeyPath_impl
004ba59c T swift_modifyAtWritableKeyPath
00260008 T _swift_modifyAtWritableKeyPath_impl
00436518 t __swift_mutable_project_boxed_opaque_existential_1
00516a00 T swift_nonatomic_bridgeObjectRelease
00516a48 T swift_nonatomic_bridgeObjectRelease_n
005169dc T swift_nonatomic_bridgeObjectRetain
00516a2c T swift_nonatomic_bridgeObjectRetain_n
004b6c90 T swift_nonatomic_release
004b6d7c T swift_nonatomic_release_n
004b6b30 T swift_nonatomic_retain
004b6c10 T swift_nonatomic_retain_n
004b7424 T swift_nonatomic_unownedRelease
004b77c4 T swift_nonatomic_unownedRelease_n
004b7354 T swift_nonatomic_unownedRetain
004b76f0 T swift_nonatomic_unownedRetain_n
004b7cc4 T swift_nonatomic_unownedRetainStrong
004b7f84 T swift_nonatomic_unownedRetainStrongAndRelease
004866e8 t __swift_noop_void_return
005169b8 T _swift_objcClassUsesNativeSwiftReferenceCounting
004e7ce0 T swift_once
00517c4c T swift_OpaqueSummary
004b6a60 T swift_projectBox
00435a64 t __swift_project_boxed_opaque_existential_0
004ba500 T swift_readAtKeyPath
005170e0 T swift_reflectionMirror_count
005177ac T swift_reflectionMirror_displayStyle
00516f30 T swift_reflectionMirror_normalizedType
005174b8 T swift_reflectionMirror_subscript
00586854 r __swift_reflection_version
004e8c48 T swift_registerProtocolConformances
004dbe48 T swift_registerProtocols
004da17c T swift_registerTypeMetadataRecords
005a0aac D _swift_release
004b6958 T swift_release
004b82b0 t _swift_release_dealloc
005a0ab0 D _swift_release_n
004b6d3c T swift_release_n
004c6f1c T swift_relocateClassMetadata
004b5af0 T swift_reportError
004b5ccc t swift_reportError.cold.1
005a0a94 D _swift_reportFatalErrorsToDebugger
004b5ad8 T _swift_reportToDebugger
005a0aa4 D _swift_retain
004b6aa8 T swift_retain
004b6e70 T swift_retainCount
005a0aa8 D _swift_retain_n
004b6b80 T swift_retain_n
004b5ad4 T _swift_runtime_on_report
00260078 T swift_setAtReferenceWritableKeyPath
00260038 T swift_setAtWritableKeyPath
004b7aa4 T swift_setDeallocating
002d1818 t _swift_setDownCastConditionalIndirect
002d17c4 t _swift_setDownCastIndirect
004ed448 T _swift_setGlobalRuntimeFunctionCounters
004ea700 T _swift_setGlobalRuntimeFunctionCountersMode
004ed980 T _swift_setGlobalRuntimeFunctionCountersUpdateHandler
004ed324 T _swift_setObjectRuntimeFunctionCounters
004ea724 T _swift_setPerObjectRuntimeFunctionCountersMode
004b5adc T _swift_shouldReportFatalErrorsToDebugger
004b64ec T swift_slowAlloc
004b6578 T swift_slowDealloc
004b5074 T swift_storeEnumTagMultiPayload
004b4854 T swift_storeEnumTagSinglePayloadGeneric
0013af08 t swift_swiftValueConformsTo
005a0ab4 D _swift_tryRetain
004b7958 T swift_tryRetain
0052d5e8 T swift_uint64ToString
0013a984 t swift_unboxFromSwiftValueWithType
00182330 T swift_unexpectedError
004b817c T swift_unownedCheck
004b7138 T swift_unownedRelease
004b75e4 T swift_unownedRelease_n
004b7000 T swift_unownedRetain
004b6f24 T swift_unownedRetainCount
004b75b4 T swift_unownedRetain_n
004b7b70 T swift_unownedRetainStrong
004b7dec T swift_unownedRetainStrongAndRelease
004b6684 T swift_verifyEndOfLifetime
004b877c T swift_weakAssign
004b8948 T swift_weakCopyAssign
004b8888 T swift_weakCopyInit
004b886c T swift_weakDestroy
004b874c T swift_weakInit
004b8800 T swift_weakLoadStrong
004b6fb4 T swift_weakRetainCount
004b8a10 T swift_weakTakeAssign
004b8934 T swift_weakTakeInit
004b8830 T swift_weakTakeStrong
004b5678 T swift_willThrow
```
## C++ functions
```
004e7da4 t _Z14_swift_strlcpyPcPKcj
004ea55c t _Z41swift_trackRuntimeInvocation_swift_retainPN5swift10HeapObjectE
004ea864 t _Z42swift_trackRuntimeInvocation_swift_releasePN5swift10HeapObjectE
004eaa00 t _Z43swift_trackRuntimeInvocation_swift_retain_nPN5swift10HeapObjectE
004eab9c t _Z44swift_trackRuntimeInvocation_swift_release_nPN5swift10HeapObjectE
004ec894 t _Z44swift_trackRuntimeInvocation_swift_tryRetainPN5swift10HeapObjectE
004eca30 t _Z45swift_trackRuntimeInvocation_swift_tryReleasePN5swift10HeapObjectE
004ec224 t _Z46swift_trackRuntimeInvocation_swift_allocObjectPN5swift10HeapObjectE
004ec3c0 t _Z48swift_trackRuntimeInvocation_swift_deallocObjectPN5swift10HeapObjectE
004eb544 t _Z48swift_trackRuntimeInvocation_swift_unownedRetainPN5swift10HeapObjectE
004eb6e0 t _Z49swift_trackRuntimeInvocation_swift_unownedReleasePN5swift10HeapObjectE
004ec55c t _Z50swift_trackRuntimeInvocation_swift_initStackObjectPN5swift10HeapObjectE
004eb3a8 t _Z50swift_trackRuntimeInvocation_swift_setDeallocatingPN5swift10HeapObjectE
004ebbb4 t _Z50swift_trackRuntimeInvocation_swift_unownedRetain_nPN5swift10HeapObjectE
004ec6f8 t _Z51swift_trackRuntimeInvocation_swift_initStaticObjectPN5swift10HeapObjectE
004ead38 t _Z51swift_trackRuntimeInvocation_swift_nonatomic_retainPN5swift10HeapObjectE
004ebd50 t _Z51swift_trackRuntimeInvocation_swift_unownedRelease_nPN5swift10HeapObjectE
004eaed4 t _Z52swift_trackRuntimeInvocation_swift_nonatomic_releasePN5swift10HeapObjectE
004eb070 t _Z53swift_trackRuntimeInvocation_swift_nonatomic_retain_nPN5swift10HeapObjectE
004eb20c t _Z54swift_trackRuntimeInvocation_swift_nonatomic_release_nPN5swift10HeapObjectE
004ecbcc t _Z54swift_trackRuntimeInvocation_swift_unownedRetainStrongPN5swift10HeapObjectE
004eb87c t _Z58swift_trackRuntimeInvocation_swift_nonatomic_unownedRetainPN5swift10HeapObjectE
004eba18 t _Z59swift_trackRuntimeInvocation_swift_nonatomic_unownedReleasePN5swift10HeapObjectE
004ebeec t _Z60swift_trackRuntimeInvocation_swift_nonatomic_unownedRetain_nPN5swift10HeapObjectE
004ec088 t _Z61swift_trackRuntimeInvocation_swift_nonatomic_unownedRelease_nPN5swift10HeapObjectE
004ecd68 t _Z64swift_trackRuntimeInvocation_swift_nonatomic_unownedRetainStrongPN5swift10HeapObjectE
004ecf04 t _Z64swift_trackRuntimeInvocation_swift_unownedRetainStrongAndReleasePN5swift10HeapObjectE
004ed0a0 t _Z74swift_trackRuntimeInvocation_swift_nonatomic_unownedRetainStrongAndReleasePN5swift10HeapObjectE
004b6ab8 t _ZL14_swift_retain_PN5swift10HeapObjectE
005b64d0 b _ZL15ForeignMetadata
00520654 t _ZL15isInSwiftModulePN5swift8Demangle4NodeE
004b6c64 t _ZL15_swift_release_PN5swift10HeapObjectE
004b5b64 t _ZL15swift_vasprintfPPcPKcSt9__va_list
0051e99c t _ZL16applyParamLabelsPN5swift8Demangle4NodeES2_RNS0_11NodeFactoryE
005b6510 b _ZL16ExistentialTypes
005869f0 r _ZL16powersOf10_Float
004b6b90 t _ZL16_swift_retain_n_PN5swift10HeapObjectEj
0052dd54 t _ZL16swift_snprintf_lPcjP15__locale_structPKcz
00586b30 r _ZL17powersOf10_Double
005b6470 b _ZL17SingletonMetadata
004b6d4c t _ZL17_swift_release_n_PN5swift10HeapObjectEj
004b7968 t _ZL17_swift_tryRetain_PN5swift10HeapObjectE
004b658c t _ZL19_swift_allocObject_PKN5swift18TargetHeapMetadataINS_9InProcessEEEjj
04adf30 t _ZL21swift_dynamicCastImplPN5swift11OpaqueValueES1_PKNS_14TargetMetadataINS_9InProcessEEES6_NS_16DynamicCastFlagsE
004b0e08 t _ZL22_dynamicCastToMetatypePN5swift11OpaqueValueES1_PKNS_14TargetMetadataINS_9InProcessEEEPKNS_22TargetMetatypeMetadataIS3_EENS_16DynamicCastFlagsE
004ba4f0 t _ZL22equateGenericArgumentsPKvS0_j
004d1f0c t _ZL22findAssociatedTypeNamePKN5swift24TargetProtocolDescriptorINS_9InProcessEEEPKNS_25TargetProtocolRequirementIS1_EE
004daf2c t _ZL22_findContextDescriptorPN5swift8Demangle4NodeERNS0_9DemanglerE
004ad86c t _ZL23findDynamicValueAndTypePN5swift11OpaqueValueEPKNS_14TargetMetadataINS_9InProcessEEERS1_RS6_Rbbb
005c6738 b _ZL23RuntimeObjectStateCache
004b8454 t _ZL23swift_deallocObjectImplPN5swift10HeapObjectEjjb
0052e1e8 t _ZL23swift_image_constructorv
004b1644 t _ZL25swift_runtime_unreachablePKc
004b6288 t _ZL25swift_runtime_unreachablePKc
004cb2d8 t _ZL25swift_runtime_unreachablePKc
004de9e4 t _ZL25swift_runtime_unreachablePKc
004e8074 t _ZL25swift_runtime_unreachablePKc
00518684 t _ZL25swift_runtime_unreachablePKc
004d0170 t _ZL26referencesAnonymousContextPN5swift8Demangle4NodeE
004af3cc t _ZL26swift_dynamicCastClassImplPKvPKN5swift19TargetClassMetadataINS1_9InProcessEEE
00599768 d _ZL26tuple_witnesses_pod_inline
004d32bc t _ZL27checkTransitiveCompletenessPKN5swift14TargetMetadataINS_9InProcessEEE
004b007c t _ZL27_dynamicCastFromExistentialPN5swift11OpaqueValueES1_PKNS_29TargetExistentialTypeMetadataINS_9InProcessEEEPKNS_14TargetMetadataIS3_EENS_16DynamicCastFlagsE
004b6668 t _ZL27initStaticObjectWithContextPv
004ba5d0 t _ZL27_release_owner_continuationPN5swift15YieldOnceBufferEb
004d9f3c t _ZL28_registerTypeMetadataRecordsR24TypeMetadataPrivateStatePKN5swift24TargetTypeMetadataRecordINS1_9InProcessEEES6_
004e9320 t _ZL28swift_conformsToProtocolImplPKN5swift14TargetMetadataINS_9InProcessEEEPKNS_24TargetProtocolDescriptorIS1_EE
004c9bf8 t _ZL28_swift_initClassMetadataImplPN5swift19TargetClassMetadataINS_9InProcessEEENS_16ClassLayoutFlagsEjPKPKNS_10TypeLayoutEPjb
004e8a08 t _ZL29_registerProtocolConformancesR16ConformanceStatePKN5swift21RelativeDirectPointerINS1_35TargetProtocolConformanceDescriptorINS1_9InProcessEEELb0EiEES8_
004af91c t _ZL29swift_dynamicCastMetatypeImplPKN5swift14TargetMetadataINS_9InProcessEEES4_
004d6b38 t _ZL29tuple_getEnumTagSinglePayloadILb0ELb0EEjPKN5swift11OpaqueValueEjPKNS0_14TargetMetadataINS0_9InProcessEEE
004d5e5c t _ZL29tuple_getEnumTagSinglePayloadILb0ELb1EEjPKN5swift11OpaqueValueEjPKNS0_14TargetMetadataINS0_9InProcessEEE
004d64cc t _ZL29tuple_getEnumTagSinglePayloadILb1ELb0EEjPKN5swift11OpaqueValueEjPKNS0_14TargetMetadataINS0_9InProcessEEE
004d5768 t _ZL29tuple_getEnumTagSinglePayloadILb1ELb1EEjPKN5swift11OpaqueValueEjPKNS0_14TargetMetadataINS0_9InProcessEEE
004d5970 t _ZL29tuple_storeExtraInhabitantTagPN5swift11OpaqueValueEjjPKNS_14TargetMetadataINS_9InProcessEEE
00599798 d _ZL29tuple_witnesses_nonpod_inline
005997c8 d _ZL29tuple_witnesses_pod_noninline
005a0b50 d _ZL30RuntimeFunctionCountersOffsets
004de700 t _ZL30swift_getTypeByMangledNameImplN5swift15MetadataRequestEN4llvm9StringRefEPKPKvSt8functionIFPKNS_14TargetMetadataINS_9InProcessEEEjjEES7_IFPKNS_18TargetWitnessTableIS9_EESC_jEE
004de4dc t _ZL30swift_getTypeByMangledNodeImplN5swift15MetadataRequestERNS_8Demangle9DemanglerEPNS1_4NodeEPKPKvSt8functionIFPKNS_14TargetMetadataINS_9InProcessEEEjjEESA_IFPKNS_18TargetWitnessTableISC_EESF_jEE
004e9474 t _ZL33swift_conformsToSwiftProtocolImplPKN5swift14TargetMetadataINS_9InProcessEEEPKNS_24TargetProtocolDescriptorIS1_EEN4llvm9StringRefE
004af6bc t _ZL33swift_dynamicCastUnknownClassImplPKvPKN5swift14TargetMetadataINS1_9InProcessEEE
004d034c t _ZL38swift_getAssociatedTypeWitnessSlowImplN5swift15MetadataRequestEPNS_18TargetWitnessTableINS_9InProcessEEEPKNS_14TargetMetadataIS2_EEPKNS_25TargetProtocolRequirementIS2_EESC_
004d66d4 t _ZL38tuple_initializeBufferWithCopyOfBufferILb0ELb0EEPN5swift11OpaqueValueEPNS0_17TargetValueBufferINS0_9InProcessEEES6_PKNS0_14TargetMetadataIS4_EE
004d5a4c t _ZL38tuple_initializeBufferWithCopyOfBufferILb0ELb1EEPN5swift11OpaqueValueEPNS0_17TargetValueBufferINS0_9InProcessEEES6_PKNS0_14TargetMetadataIS4_EE
004d6064 t _ZL38tuple_initializeBufferWithCopyOfBufferILb1ELb0EEPN5swift11OpaqueValueEPNS0_17TargetValueBufferINS0_9InProcessEEES6_PKNS0_14TargetMetadataIS4_EE
004d5344 t _ZL38tuple_initializeBufferWithCopyOfBufferILb1ELb1EEPN5swift11OpaqueValueEPNS0_17TargetValueBufferINS0_9InProcessEEES6_PKNS0_14TargetMetadataIS4_EE
005c6730 b _ZL38UpdatePerObjectRuntimeFunctionCounters
004af50c t _ZL39swift_dynamicCastClassUnconditionalImplPKvPKN5swift19TargetClassMetadataINS1_9InProcessEEEPKcjj
005c6794 b _ZL39_swift_stdlib_ProcessOverrideUnsafeArgc
005c6790 b _ZL39_swift_stdlib_ProcessOverrideUnsafeArgv
004afccc t _ZL41_dynamicCastClassToValueViaObjCBridgeablePN5swift11OpaqueValueES1_PKNS_14TargetMetadataINS_9InProcessEEES6_PKN12_GLOBAL__N_133_ObjectiveCBridgeableWitnessTableENS_16DynamicCastFlagsE
004b17c4 t _ZL41_dynamicCastMetatypeToExistentialMetatypePN5swift11OpaqueValueEPKNS_14TargetMetadataINS_9InProcessEEEPKNS_33TargetExistentialMetatypeMetadataIS3_EENS_16DynamicCastFlagsEb
00516e5c t _ZL41swift_dynamicCastForeignClassMetatypeImplPKN5swift19TargetClassMetadataINS_9InProcessEEES4_
005c672c b _ZL42GlobalRuntimeFunctionCountersUpdateHandler
004afad4 t _ZL42swift_dynamicCastMetatypeUnconditionalImplPKN5swift14TargetMetadataINS_9InProcessEEES4_PKcjj
004c98c0 t _ZL43pod_direct_initializeBufferWithCopyOfBufferPN5swift17TargetValueBufferINS_9InProcessEEES3_PKNS_14TargetMetadataIS1_EE
004c98e4 t _ZL45pod_indirect_initializeBufferWithCopyOfBufferPN5swift17TargetValueBufferINS_9InProcessEEES3_PKNS_14TargetMetadataIS1_EE
004d074c t _ZL45swift_getAssociatedConformanceWitnessSlowImplPN5swift18TargetWitnessTableINS_9InProcessEEEPKNS_14TargetMetadataIS1_EES7_PKNS_25TargetProtocolRequirementIS1_EESB_
004af81c t _ZL46swift_dynamicCastUnknownClassUnconditionalImplPKvPKN5swift14TargetMetadataINS1_9InProcessEEEPKcjj
00516eec t _ZL54swift_dynamicCastForeignClassMetatypeUnconditionalImplPKN5swift19TargetClassMetadataINS_9InProcessEEES4_PKcjj
004b8a54 t _ZNK5swift10HeapObject4dumpEv
004cc6b0 t _ZNK5swift14TargetMetadataINS_9InProcessEE16allocateBufferInEPNS_17TargetValueBufferIS1_EE
004cc6e8 t _ZNK5swift14TargetMetadataINS_9InProcessEE17projectBufferFromEPNS_17TargetValueBufferIS1_EE
004cc700 t _ZNK5swift14TargetMetadataINS_9InProcessEE18deallocateBufferInEPNS_17TargetValueBufferIS1_EE
004cfe20 t _ZNK5swift14TargetMetadataINS_9InProcessEE24satisfiesClassConstraintEv
004cc680 t _ZNK5swift14TargetMetadataINS_9InProcessEE27allocateBoxForExistentialInEPNS_17TargetValueBufferIS1_EE
004cc980 t _ZNK5swift14TargetMetadataINS_9InProcessEE4dumpEv
004d0a5c t _ZNK5swift19TargetClassMetadataINS_9InProcessEE14getDescriptionEv
004ccd2c t _ZNK5swift20TargetEnumDescriptorINS_9InProcessEE4dumpEv
004c7560 t _ZNK5swift21TargetClassDescriptorINS_9InProcessEE17getMetadataBoundsEv
004ca8dc t _ZNK5swift21TargetClassDescriptorINS_9InProcessEE20getMethodDescriptorsEv
004d0cc8 t _ZNK5swift21TargetClassDescriptorINS_9InProcessEE9getMethodEj
004e7e2c t _ZNK5swift23ProtocolDescriptorFlags4dumpEv
004b136c t _ZNK5swift23TargetContextDescriptorINS_9InProcessEE17getGenericContextEv
004ccc5c t _ZNK5swift23TargetContextDescriptorINS_9InProcessEE4dumpEv
004e7e10 t _ZNK5swift24TargetProtocolDescriptorINS_9InProcessEE4dumpEv
004d2900 t _ZNK5swift27TargetTypeContextDescriptorINS_9InProcessEE16getGenericParamsEv
004b1548 t _ZNK5swift27TargetTypeContextDescriptorINS_9InProcessEE24getGenericArgumentOffsetEv
004c7824 t _ZNK5swift27TargetTypeContextDescriptorINS_9InProcessEE27getFullGenericContextHeaderEv
004d2aac t _ZNK5swift27TargetTypeContextDescriptorINS_9InProcessEE32getForeignMetadataInitializationEv
004d1940 t _ZNK5swift27TargetTypeContextDescriptorINS_9InProcessEE34getSingletonMetadataInitializationEv
004ddae8 t _ZNK5swift28DynamicReplacementDescriptor17enableReplacementEv
004ddb64 t _ZNK5swift28DynamicReplacementDescriptor18disableReplacementEv
004cb288 t _ZNK5swift29TargetExistentialTypeMetadataINS_9InProcessEE12mayTakeValueEPKNS_11OpaqueValueE
004cb330 t _ZNK5swift29TargetExistentialTypeMetadataINS_9InProcessEE12projectValueEPKNS_11OpaqueValueE
004cb398 t _ZNK5swift29TargetExistentialTypeMetadataINS_9InProcessEE14getDynamicTypeEPKNS_11OpaqueValueE
004cb3e8 t _ZNK5swift29TargetExistentialTypeMetadataINS_9InProcessEE15getWitnessTableEPKNS_11OpaqueValueEj
004cb26c t _ZNK5swift29TargetExistentialTypeMetadataINS_9InProcessEE17getRepresentationEv
004cb30c t _ZNK5swift29TargetExistentialTypeMetadataINS_9InProcessEE26deinitExistentialContainerEPNS_11OpaqueValueE
004b6358 t _ZNK5swift32TargetOpaqueExistentialContainerINS_9InProcessEE12projectValueEv
004b633c t _ZNK5swift32TargetOpaqueExistentialContainerINS_9InProcessEE13isValueInlineEv
004b63f0 t _ZNK5swift32TargetOpaqueExistentialContainerINS_9InProcessEE4dumpEv
004b63ac t _ZNK5swift32TargetOpaqueExistentialContainerINS_9InProcessEE6verifyEv
004dd134 t _ZNK5swift34SubstGenericParametersFromMetadata11getMetadataEjj
004dd1fc t _ZNK5swift34SubstGenericParametersFromMetadata15getWitnessTableEPKNS_14TargetMetadataINS_9InProcessEEEj
004dc914 t _ZNK5swift34SubstGenericParametersFromMetadata19buildDescriptorPathEPKNS_23TargetContextDescriptorINS_9InProcessEEERNS_8Demangle9DemanglerE
004dcd48 t _ZNK5swift34SubstGenericParametersFromMetadata20buildEnvironmentPathEPKNS_24TargetGenericEnvironmentINS_9InProcessEEE
004dcfcc t _ZNK5swift34SubstGenericParametersFromMetadata5setupEv
004e80a8 t _ZNK5swift35TargetProtocolConformanceDescriptorINS_9InProcessEE15getWitnessTableEPKNS_14TargetMetadataIS1_EE
004e7fb8 t _ZNK5swift35TargetProtocolConformanceDescriptorINS_9InProcessEE24getCanonicalTypeMetadataEv
004e7f78 t _ZNK5swift35TargetProtocolConformanceDescriptorINS_9InProcessEE6verifyEv
004dd224 t _ZNK5swift37SubstGenericParametersFromWrittenArgs11getMetadataEjj
004dd2bc t _ZNK5swift37SubstGenericParametersFromWrittenArgs15getWitnessTableEPKNS_14TargetMetadataINS_9InProcessEEEj
004c6dc8 t _ZNK5swift37TargetSingletonMetadataInitializationINS_9InProcessEE8allocateEPKNS_27TargetTypeContextDescriptorIS1_EE
00521384 t _ZNK5swift8Demangle17SubstitutionEntry10deepEqualsEPNS0_4NodeES3_
004f8798 t _ZNK5swift8Demangle4Node14getNumChildrenEv
004f87e8 t _ZNK5swift8Demangle4Node3endEv
004f87c4 t _ZNK5swift8Demangle4Node5beginEv
004b9328 t _ZNK5swift9RefCountsINS_13RefCountBitsTILNS_19RefCountInlinednessE1EEEE20isUniquelyReferencedEv
         U _ZNKSt8__detail20_Prime_rehash_policy14_M_need_rehashEjjj
005b64e0 b _ZZ16swift_getKeyPathE8Override
005b64e4 b _ZZ16swift_getKeyPathE9Predicate
004d1ecc t _ZZ16swift_getKeyPathEN4$_118__invokeEPv
005b6420 b _ZZ17swift_dynamicCastE8Override
005b6424 b _ZZ17swift_dynamicCastE9Predicate
004afcac t _ZZ17swift_dynamicCastEN3$_08__invokeEPv
005b6400 b _ZZ17swift_getTypeNameE13TypeNameCache
005b63dc b _ZZ17swift_getTypeNameE17TypeNameCacheLock
005c67b8 b _ZZ19swift_stdlib_randomE19getrandom_available
005c67c0 b _ZZ19swift_stdlib_randomE2fd
005c67c8 b _ZZ19swift_stdlib_randomE5mutex
004cd7d4 t _ZZ21swift_getWitnessTableENK3$_5clEPKN5swift18TargetWitnessTableINS0_9InProcessEEE
005b6428 b _ZZ22swift_dynamicCastClassE8Override
005b642c b _ZZ22swift_dynamicCastClassE9Predicate
004b1924 t _ZZ22swift_dynamicCastClassEN3$_18__invokeEPv
004d9784 t _ZZ24swift_checkMetadataStateEN19CheckStateCallbacks18forForeignMetadataEPKN5swift14TargetMetadataINS0_9InProcessEEEPKNS0_27TargetTypeContextDescriptorIS2_EE
005c668c b _ZZ24swift_conformsToProtocolE8Override
005c6690 b _ZZ24swift_conformsToProtocolE9Predicate
004e9854 t _ZZ24swift_conformsToProtocolEN3$_28__invokeEPv
005b6448 b _ZZ25swift_dynamicCastMetatypeE8Override
005b644c b _ZZ25swift_dynamicCastMetatypeE9Predicate
004b19a4 t _ZZ25swift_dynamicCastMetatypeEN3$_58__invokeEPv
005b6438 b _ZZ29swift_dynamicCastUnknownClassE8Override
005b643c b _ZZ29swift_dynamicCastUnknownClassE9Predicate
004b1964 t _ZZ29swift_dynamicCastUnknownClassEN3$_38__invokeEPv
005b64e8 b _ZZ34swift_getAssociatedTypeWitnessSlowE8Override
005b64ec b _ZZ34swift_getAssociatedTypeWitnessSlowE9Predicate
004d1eec t _ZZ34swift_getAssociatedTypeWitnessSlowEN4$_128__invokeEPv
005b6430 b _ZZ35swift_dynamicCastClassUnconditionalE8Override
005b6434 b _ZZ35swift_dynamicCastClassUnconditionalE9Predicate
004b1944 t _ZZ35swift_dynamicCastClassUnconditionalEN3$_28__invokeEPv
005c67ec b _ZZ35_swift_stdlib_threadLocalStorageGetE3key
005c67e8 b _ZZ35_swift_stdlib_threadLocalStorageGetE5token
005c6778 b _ZZ37swift_dynamicCastForeignClassMetatypeE8Override
005c677c b _ZZ37swift_dynamicCastForeignClassMetatypeE9Predicate
00516ef0 t _ZZ37swift_dynamicCastForeignClassMetatypeEN3$_08__invokeEPv
005b6450 b _ZZ38swift_dynamicCastMetatypeUnconditionalE8Override
005b6454 b _ZZ38swift_dynamicCastMetatypeUnconditionalE9Predicate
004b19c4 t _ZZ38swift_dynamicCastMetatypeUnconditionalEN3$_68__invokeEPv
005b64f0 b _ZZ41swift_getAssociatedConformanceWitnessSlowE8Override
005b64f4 b _ZZ41swift_getAssociatedConformanceWitnessSlowE9Predicate
004d2230 t _ZZ41swift_getAssociatedConformanceWitnessSlowEN4$_138__invokeEPv
005b6440 b _ZZ42swift_dynamicCastUnknownClassUnconditionalE8Override
005b6444 b _ZZ42swift_dynamicCastUnknownClassUnconditionalE9Predicate
004b1984 t _ZZ42swift_dynamicCastUnknownClassUnconditionalEN3$_48__invokeEPv
005c6780 b _ZZ50swift_dynamicCastForeignClassMetatypeUnconditionalE8Override
005c6784 b _ZZ50swift_dynamicCastForeignClassMetatypeUnconditionalE9Predicate
00516f10 t _ZZ50swift_dynamicCastForeignClassMetatypeUnconditionalEN3$_18__invokeEPv
005b6458 b _ZZL21getOverrideSectionPtrvE18OverrideSectionPtr
005b645c b _ZZL21getOverrideSectionPtrvE9Predicate
004b24e4 t _ZZL21getOverrideSectionPtrvEN3$_08__invokeEPv
004d15c8 t _ZZL23checkMetadataDependencyN5swift18MetadataDependencyEEN21IsIncompleteCallbacks18forForeignMetadataEPKNS_14TargetMetadataINS_9InProcessEEEPKNS_27TargetTypeContextDescriptorIS3_EE
004d3640 t _ZZL27checkTransitiveCompletenessPKN5swift14TargetMetadataINS_9InProcessEEEENK4$_22clES4_
004d26ac t _ZZL38areAllTransitiveMetadataComplete_cheapPKN5swift14TargetMetadataINS_9InProcessEEEENK3$_6clES4_
005126ec t _ZZN12_GLOBAL__N_111NodePrinter23printFunctionParametersEPN5swift8Demangle4NodeES4_bENKUlS4_E_clES4_
0056e502 r _ZZN12_GLOBAL__N_112OldDemangler18demangleIdentifierEN4llvm8OptionalIN5swift8Demangle4Node4KindEEEE13op_char_table
00517ee8 t _ZZN12_GLOBAL__N_19TupleImpl9subscriptEiPPKcPPFvS2_EENUlS2_E_8__invokeES2_
00586de8 r _ZZN12_GLOBAL__N_1lsERN5swift8Demangle16DemanglerPrinterERKNS_12QuotedStringEE8Hexdigit
005c6620 b _ZZN4llvm7hashing6detail18get_execution_seedEvE4seed
004d9314 t _ZZN5swift18addToMetadataQueueEPNS_28MetadataCompletionQueueEntryENS_18MetadataDependencyEEN16EnqueueCallbacks18forForeignMetadataEPKNS_14TargetMetadataINS_9InProcessEEEPKNS_27TargetTypeContextDescriptorIS5_EE
004d9308 t _ZZN5swift18addToMetadataQueueEPNS_28MetadataCompletionQueueEntryENS_18MetadataDependencyEENO16EnqueueCallbacks16forOtherMetadataEPKNS_14TargetMetadataINS_9InProcessEEE
004d967c t _ZZN5swift24resumeMetadataCompletionEPNS_28MetadataCompletionQueueEntryEENO15ResumeCallbacks16forOtherMetadataEPKNS_14TargetMetadataINS_9InProcessEEE
005c6618 b _ZZN5swift26swift_getTypeByMangledNameENS_15MetadataRequestEN4llvm9StringRefEPKPKvSt8functionIFPKNS_14TargetMetadataINS_9InProcessEEEjjEES7_IFPKNS_18TargetWitnessTableIS9_EESC_jEEE8Override
005c661c b _ZZN5swift26swift_getTypeByMangledNameENS_15MetadataRequestEN4llvm9StringRefEPKPKvSt8functionIFPKNS_14TargetMetadataINS_9InProcessEEEjjEES7_IFPKNS_18TargetWitnessTableIS9_EESC_jEEE9Predicate
004e67ac t _ZZN5swift26swift_getTypeByMangledNameENS_15MetadataRequestEN4llvm9StringRefEPKPKvSt8functionIFPKNS_14TargetMetadataINS_9InProcessEEEjjEES7_IFPKNS_18TargetWitnessTableIS9_EESC_jEEEN4$_138__invokeEPv
005c6610 b _ZZN5swift26swift_getTypeByMangledNodeENS_15MetadataRequestERNS_8Demangle9DemanglerEPNS1_4NodeEPKPKvSt8functionIFPKNS_14TargetMetadataINS_9InProcessEEEjjEESA_IFPKNS_18TargetWitnessTableISC_EESF_jEEE8Override
005c6614 b _ZZN5swift26swift_getTypeByMangledNodeENS_15MetadataRequestERNS_8Demangle9DemanglerEPNS1_4NodeEPKPKvSt8functionIFPKNS_14TargetMetadataINS_9InProcessEEEjjEESA_IFPKNS_18TargetWitnessTableISC_EESF_jEEE9Predicate
004e18a4 t _ZZN5swift26swift_getTypeByMangledNodeENS_15MetadataRequestERNS_8Demangle9DemanglerEPNS1_4NodeEPKPKvSt8functionIFPKNS_14TargetMetadataINS_9InProcessEEEjjEESA_IFPKNS_18TargetWitnessTableISC_EESF_jEEEN4$_128__invokeEPv
004cfc1c t _ZZN5swift28checkMetadataDependencyCycleEPKNS_14TargetMetadataINS_9InProcessEEENS_18MetadataDependencyES5_ENK3$_7clES5_
005c6694 b _ZZN5swift29swift_conformsToSwiftProtocolEPKNS_14TargetMetadataINS_9InProcessEEEPKNS_24TargetProtocolDescriptorIS1_EEN4llvm9StringRefEE8Override
005c6698 b _ZZN5swift29swift_conformsToSwiftProtocolEPKNS_14TargetMetadataINS_9InProcessEEEPKNS_24TargetProtocolDescriptorIS1_EEN4llvm9StringRefEE9Predicate
004e9874 t _ZZN5swift29swift_conformsToSwiftProtocolEPKNS_14TargetMetadataINS_9InProcessEEEPKNS_24TargetProtocolDescriptorIS1_EEN4llvm9StringRefEEN3$_38__invokeEPv
004d0928 t _ZZN5swift4LazyIN12_GLOBAL__N_120GenericMetadataCacheEE11getWithInitIRKNS_20TargetGenericContextINS_9InProcessEEEEERS2_OT_EN4Data4initEPv
0052cc4c t _ZZN5swift8Demangle10mangleNodeB5cxx11EPNS0_4NodeEENK3$_0clENS0_21SymbolicReferenceKindEPKv
004e6220 t _ZZN5swift8Demangle11TypeDecoderIN12_GLOBAL__N_122DecodedMetadataBuilderEE30decodeMangledFunctionInputTypeEPNS0_4NodeERN4llvm15SmallVectorImplINS0_13FunctionParamIPKNS_14TargetMetadataINS_9InProcessEEEEEEERbENKUlS6_RSF_E_clES6_SJ_
0056e502 r _ZZN5swift8Demangle9Demangler26demangleOperatorIdentifierEvE13op_char_table
004d0a28 t _ZZSt9call_onceIPFvPvEJPZN5swift4LazyIN12_GLOBAL__N_120GenericMetadataCacheEE11getWithInitIRKNS3_20TargetGenericContextINS3_9InProcessEEEEERS6_OT_E4DataEEvRSt9once_flagSG_DpOT0_ENUlvE0_8__invokeEv
004e67cc t _ZZSt9call_onceIRPFvPvEJPA112_cEEvRSt9once_flagOT_DpOT0_ENUlvE0_8__invokeEv
004d1258 t _ZZSt9call_onceIRPFvPvEJPA12_cEEvRSt9once_flagOT_DpOT0_ENUlvE0_8__invokeEv
004d1e6c t _ZZSt9call_onceIRPFvPvEJPA1_cEEvRSt9once_flagOT_DpOT0_ENUlvE0_8__invokeEv
004b19e4 t _ZZSt9call_onceIRPFvPvEJPA24_cEEvRSt9once_flagOT_DpOT0_ENUlvE0_8__invokeEv
0052de54 t _ZZSt9call_onceIRPFvPvEJPA4_cEEvRSt9once_flagOT_DpOT0_ENUlvE0_8__invokeEv
004e68cc t _ZZSt9call_onceIRPFvPvEJPA56_cEEvRSt9once_flagOT_DpOT0_ENUlvE0_8__invokeEv
004d3c78 t _ZZSt9call_onceIRPFvPvEJPA72_cEEvRSt9once_flagOT_DpOT0_ENUlvE0_8__invokeEv
004e7d74 t _ZZSt9call_onceIZ10swift_onceE3$_0JEEvRSt9once_flagOT_DpOT0_ENUlvE0_8__invokeEv
0052dfc4 t _ZZSt9call_onceIZ35_swift_stdlib_threadLocalStorageGetE3$_0JDnEEvRSt9once_flagOT_DpOT0_ENUlvE0_8__invokeEv
0052e00c t _ZZZ35_swift_stdlib_threadLocalStorageGetENK3$_0clEPvENUlS0_E_8__invokeES0_
```
# Stdlib functions
## Swift functions
```
00261404 T $ss17_swift_getKeyPath7pattern9argumentsSVSv_SVtF
0012d6cc T $ss27_swift_stdlib_atomicLoadInt6objectSiSpySiG_tF
0012d6a8 T $ss28_swift_stdlib_atomicStoreInt6object7desiredySpySiG_SitF
0012d834 T $ss30_swift_stdlib_atomicFetchOrInt6object7operandSiSpySiG_SitF
0012d70c T $ss31_swift_stdlib_atomicFetchAddInt6object7operandSiSpySiG_SitF
0012d7a0 T $ss31_swift_stdlib_atomicFetchAndInt6object7operandSiSpySiG_SitF
0012d8c8 T $ss31_swift_stdlib_atomicFetchXorInt6object7operandSiSpySiG_SitF
004a593c T $ss32_swift_stdlib_atomicFetchOrInt326object7operands0F0VSpyAEG_AEtF
0012da30 T $ss32_swift_stdlib_atomicFetchOrInt646object7operands0F0VSpyAEG_AEtF
004a5934 T $ss33_swift_stdlib_atomicFetchAddInt326object7operands0F0VSpyAEG_AEtF
0012d9bc T $ss33_swift_stdlib_atomicFetchAddInt646object7operands0F0VSpyAEG_AEtF
004a5938 T $ss33_swift_stdlib_atomicFetchAndInt326object7operands0F0VSpyAEG_AEtF
0012d9f8 T $ss33_swift_stdlib_atomicFetchAndInt646object7operands0F0VSpyAEG_AEtF
004a5940 T $ss33_swift_stdlib_atomicFetchXorInt326object7operands0F0VSpyAEG_AEtF
0012da68 T $ss33_swift_stdlib_atomicFetchXorInt646object7operands0F0VSpyAEG_AEtF
0049f528 t $sSo27__swift_stdlib_UNumericTypeVMa
005a573c d $sSo27__swift_stdlib_UNumericTypeVMB
00598574 d $sSo27__swift_stdlib_UNumericTypeVMf
005a4fbc d $sSo27__swift_stdlib_UNumericTypeVMF
005aee84 b $sSo27__swift_stdlib_UNumericTypeVML
00582d7c r $sSo27__swift_stdlib_UNumericTypeVMn
005867cc r $sSo27__swift_stdlib_UNumericTypeVSQSCMc
004a7170 t $sSo27__swift_stdlib_UNumericTypeVSQSCSQ2eeoiySbx_xtFZTW
005aa664 d $sSo27__swift_stdlib_UNumericTypeVSYSCMA
00586794 r $sSo27__swift_stdlib_UNumericTypeVSYSCMc
004a55e4 t $sSo27__swift_stdlib_UNumericTypeVSYSCSY8rawValue03RawF0QzvgTW
003fc978 t $sSo27__swift_stdlib_UNumericTypeVSYSCSY8rawValuexSg03RawF0Qz_tcfCTW
0049f548 t $sSo28__swift_stdlib_UCharCategoryVMa
005a5750 d $sSo28__swift_stdlib_UCharCategoryVMB
00598564 d $sSo28__swift_stdlib_UCharCategoryVMf
005a4fd8 d $sSo28__swift_stdlib_UCharCategoryVMF
005aee80 b $sSo28__swift_stdlib_UCharCategoryVML
00582d40 r $sSo28__swift_stdlib_UCharCategoryVMn
0058682c r $sSo28__swift_stdlib_UCharCategoryVSQSCMc
004a716c t $sSo28__swift_stdlib_UCharCategoryVSQSCSQ2eeoiySbx_xtFZTW
005aa67c d $sSo28__swift_stdlib_UCharCategoryVSYSCMA
005867f4 r $sSo28__swift_stdlib_UCharCategoryVSYSCMc
004a55d4 t $sSo28__swift_stdlib_UCharCategoryVSYSCSY8rawValue03RawF0QzvgTW
004ac288 t $sSo28__swift_stdlib_UCharCategoryVSYSCSY8rawValuexSg03RawF0Qz_tcfCTW
```
## C functions
```
0052d200 T _swift_stdlib_close
0052dd14 T _swift_stdlib_flockfile_stdout
0052dd28 T _swift_stdlib_funlockfile_stdout
0052d1e4 t _swift_stdlib_fwrite_stdout
004b5d44 T _swift_stdlib_getDefaultErrorCode
0052dd50 T _swift_stdlib_getHardwareConcurrency
004dc668 t swift_stdlib_getTypeByMangledNameUntrusted
0052cf58 T _swift_stdlib_getUnsafeArgvArgc
001f373c t _swift_stdlib_Hashable_hashValue_indirect
001f36b8 t _swift_stdlib_Hashable_isEqual_indirect
005c6798 B _swift_stdlib_Hashing_parameters
004ea354 T _swift_stdlib_immortalize
0052cf34 T _swift_stdlib_overrideUnsafeArgvArgc
0052d1a8 t _swift_stdlib_putchar_unlocked
0052dd3c T _swift_stdlib_putc_stderr
0052d204 T swift_stdlib_random
0052d1f8 T _swift_stdlib_read
0052d824 T swift_stdlib_readLine_stdin
0052cdb8 T _swift_stdlib_reportFatalError
0052cc94 T _swift_stdlib_reportFatalErrorInFile
0052cee0 T _swift_stdlib_reportUnimplementedInitializer
0052ce74 T _swift_stdlib_reportUnimplementedInitializerInFile
0043c278 t _swift_stdlib_strlen_unsigned
0052d9f8 T _swift_stdlib_strtod_clocale
0052db8c T _swift_stdlib_strtof_clocale
0052d860 T _swift_stdlib_strtold_clocale
0052dec0 t _swift_stdlib_threadLocalStorageGet
0052e198 T __swift_stdlib_ubrk_close
0052e1a4 T __swift_stdlib_ubrk_following
0052e19c T __swift_stdlib_ubrk_open
0052e1a0 T __swift_stdlib_ubrk_preceding
0052e1a8 T __swift_stdlib_ubrk_setText
0052e1ac T __swift_stdlib_ubrk_setUText
0052e1cc T __swift_stdlib_u_charAge
0052e1d4 T __swift_stdlib_u_charName
0052e1d0 T __swift_stdlib_u_getIntPropertyValue
0052e1e4 T __swift_stdlib_u_getNumericValue
0052e1c8 T __swift_stdlib_u_hasBinaryProperty
0052e14c T _swift_stdlib_unicode_strToLower
0052e100 T _swift_stdlib_unicode_strToUpper
0052e1bc T __swift_stdlib_unorm2_getNFCInstance
0052e1b8 T __swift_stdlib_unorm2_hasBoundaryBefore
0052e1c0 T __swift_stdlib_unorm2_normalize
0052e1c4 T __swift_stdlib_unorm2_spanQuickCheckYes
0052e1d8 T __swift_stdlib_u_strToLower
0052e1dc T __swift_stdlib_u_strToTitle
0052e1e0 T __swift_stdlib_u_strToUpper
0052e1b4 T __swift_stdlib_utext_openUChars
0052e1b0 T __swift_stdlib_utext_openUTF8
0052d1fc T _swift_stdlib_write
```
## C++ functions
```
0058d908 r symbolic So27__swift_stdlib_UNumericTypeV
0058d92a r symbolic So28__swift_stdlib_UCharCategoryV
005c67bc b _ZGVZ19swift_stdlib_randomE19getrandom_available
005c67c4 b _ZGVZ19swift_stdlib_randomE2fd
```